ccopy_reg
_reconstructor
p0
(cFWCore.ParameterSet.Config
Process
p1
c__builtin__
object
p2
Ntp3
Rp4
(dp5
S'MessageLogger'
p6
g0
(cFWCore.ParameterSet.Modules
Service
p7
g2
Ntp8
Rp9
(dp10
S'_isFrozen'
p11
I00
sS'suppressInfo'
p12
g0
(cFWCore.ParameterSet.Types
vstring
p13
c__builtin__
list
p14
(lp15
tp16
Rp17
(dp18
g11
I00
sS'_ParameterTypeBase__isTracked'
p19
I00
sS'_isModified'
p20
I00
sS'_nPerLine'
p21
I1
sbsS'suppressDebug'
p22
g0
(g13
g14
(lp23
tp24
Rp25
(dp26
g11
I00
sg19
I00
sg20
I00
sg21
I1
sbsS'cout'
p27
g0
(cFWCore.ParameterSet.Types
PSet
p28
g2
Ntp29
Rp30
(dp31
g11
I00
sg19
I00
sS'placeholder'
p32
g0
(cFWCore.ParameterSet.Types
bool
p33
g2
Ntp34
Rp35
(dp36
g11
I00
sg19
I00
sS'_value'
p37
I01
sg20
I00
sbsg20
I00
sS'_Parameterizable__parameterNames'
p38
(lp39
g32
asbsS'_lineNumber'
p40
I10
sS'debugModules'
p41
g0
(g13
g14
(lp42
tp43
Rp44
(dp45
g11
I00
sg19
I00
sg20
I00
sg21
I1
sbsS'_TypedParameterizable__type'
p46
g6
sS'fwkJobReports'
p47
g0
(g13
g14
(lp48
S'FrameworkJobReport'
p49
atp50
Rp51
(dp52
g11
I00
sg19
I00
sg20
I00
sg21
I1
sbsg38
(lp53
g12
aS'debugs'
p54
ag22
ag27
aS'cerr_stats'
p55
aS'warnings'
p56
aS'default'
p57
aS'statistics'
p58
aS'cerr'
p59
ag49
aS'suppressWarning'
p60
aS'errors'
p61
aS'destinations'
p62
ag41
aS'infos'
p63
aS'categories'
p64
ag47
asg58
g0
(g13
g14
(lp65
g55
atp66
Rp67
(dp68
g11
I00
sg19
I00
sg20
I00
sg21
I1
sbsS'_filename'
p69
S'/cvmfs/cms.cern.ch/slc6_amd64_gcc530/cms/cmssw/CMSSW_8_0_14/python/FWCore/ParameterSet/Modules.py'
p70
sg62
g0
(g13
g14
(lp71
g56
ag61
ag63
ag54
ag27
ag59
atp72
Rp73
(dp74
g11
I00
sg19
I00
sg20
I00
sg21
I1
sbsg54
g0
(g28
g2
Ntp75
Rp76
(dp77
g11
I00
sg19
I00
sg32
g0
(g33
g2
Ntp78
Rp79
(dp80
g11
I00
sg19
I00
sg37
I01
sg20
I00
sbsg20
I00
sg38
(lp81
g32
asbsg56
g0
(g28
g2
Ntp82
Rp83
(dp84
g11
I00
sg19
I00
sg32
g0
(g33
g2
Ntp85
Rp86
(dp87
g11
I00
sg19
I00
sg37
I01
sg20
I00
sbsg20
I00
sg38
(lp88
g32
asbsg61
g0
(g28
g2
Ntp89
Rp90
(dp91
g11
I00
sg19
I00
sg32
g0
(g33
g2
Ntp92
Rp93
(dp94
g11
I00
sg19
I00
sg37
I01
sg20
I00
sbsg20
I00
sg38
(lp95
g32
asbsg49
g0
(g28
g2
Ntp96
Rp97
(dp98
g11
I00
sg19
I00
sg20
I00
sg57
g0
(g28
g2
Ntp99
Rp100
(dp101
g11
I00
sg19
I00
sS'limit'
p102
g0
(cFWCore.ParameterSet.Types
int32
p103
g2
Ntp104
Rp105
(dp106
g11
I00
sg19
I00
sg37
I0
sg20
I00
sbsg20
I00
sg38
(lp107
g102
asbsS'FwkJob'
p108
g0
(g28
g2
Ntp109
Rp110
(dp111
g11
I00
sg19
I00
sg20
I00
sg102
g0
(g103
g2
Ntp112
Rp113
(dp114
g11
I00
sg19
I00
sg37
I10000000
sg20
I00
sbsg38
(lp115
S'optionalPSet'
p116
ag102
asg116
g0
(g33
g2
Ntp117
Rp118
(dp119
g11
I00
sg19
I00
sg37
I01
sg20
I00
sbsbsg38
(lp120
g57
ag116
ag108
asg116
g0
(g33
g2
Ntp121
Rp122
(dp123
g11
I00
sg19
I00
sg37
I01
sg20
I00
sbsbsg60
g0
(g13
g14
(lp124
tp125
Rp126
(dp127
g11
I00
sg19
I00
sg20
I00
sg21
I1
sbsg63
g0
(g28
g2
Ntp128
Rp129
(dp130
g11
I00
sg19
I00
sg20
I00
sS'Root_NoDictionary'
p131
g0
(g28
g2
Ntp132
Rp133
(dp134
g11
I00
sg19
I00
sg20
I00
sg102
g0
(g103
g2
Ntp135
Rp136
(dp137
g11
I00
sg19
I00
sg37
I0
sg20
I00
sbsg38
(lp138
g116
ag102
asg116
g0
(g33
g2
Ntp139
Rp140
(dp141
g11
I00
sg19
I00
sg37
I01
sg20
I00
sbsbsg38
(lp142
g116
ag131
ag32
asg116
g0
(g33
g2
Ntp143
Rp144
(dp145
g11
I00
sg19
I00
sg37
I01
sg20
I00
sbsg32
g0
(g33
g2
Ntp146
Rp147
(dp148
g11
I00
sg19
I00
sg37
I01
sg20
I00
sbsbsg64
g0
(g13
g14
(lp149
g108
aS'FwkReport'
p150
aS'FwkSummary'
p151
ag131
atp152
Rp153
(dp154
g11
I00
sg19
I00
sg20
I00
sg21
I1
sbsg20
I00
sg55
g0
(g28
g2
Ntp155
Rp156
(dp157
g11
I00
sg19
I00
sg20
I00
sg116
g0
(g33
g2
Ntp158
Rp159
(dp160
g11
I00
sg19
I00
sg37
I01
sg20
I00
sbsg38
(lp161
S'threshold'
p162
aS'output'
p163
ag116
asg162
g0
(cFWCore.ParameterSet.Types
string
p164
g2
Ntp165
Rp166
(dp167
g11
I00
sg19
I00
sg37
S'WARNING'
p168
sg20
I00
sbsg163
g0
(g164
g2
Ntp169
Rp170
(dp171
g11
I00
sg19
I00
sg37
g59
sg20
I00
sbsbsg57
g0
(g28
g2
Ntp172
Rp173
(dp174
g11
I00
sg19
I00
sg20
I00
sg38
(lp175
sbsg59
g0
(g28
g2
Ntp176
Rp177
(dp178
g11
I00
sg19
I00
sS'noTimeStamps'
p179
g0
(g33
g2
Ntp180
Rp181
(dp182
g11
I00
sg19
I00
sg37
I00
sg20
I00
sbsg150
g0
(g28
g2
Ntp183
Rp184
(dp185
g11
I00
sg19
I00
sg20
I00
sS'reportEvery'
p186
g0
(g103
g2
Ntp187
Rp188
(dp189
g11
I00
sg19
I00
sg37
I1
sg20
I00
sbsg102
g0
(g103
g2
Ntp190
Rp191
(dp192
g11
I00
sg19
I00
sg37
I10000000
sg20
I00
sbsg38
(lp193
g186
ag116
ag102
asg116
g0
(g33
g2
Ntp194
Rp195
(dp196
g11
I00
sg19
I00
sg37
I01
sg20
I00
sbsbsg20
I00
sg57
g0
(g28
g2
Ntp197
Rp198
(dp199
g11
I00
sg19
I00
sg102
g0
(g103
g2
Ntp200
Rp201
(dp202
g11
I00
sg19
I00
sg37
I10000000
sg20
I00
sbsg20
I00
sg38
(lp203
g102
asbsg131
g0
(g28
g2
Ntp204
Rp205
(dp206
g11
I00
sg19
I00
sg20
I00
sg102
g0
(g103
g2
Ntp207
Rp208
(dp209
g11
I00
sg19
I00
sg37
I0
sg20
I00
sbsg38
(lp210
g116
ag102
asg116
g0
(g33
g2
Ntp211
Rp212
(dp213
g11
I00
sg19
I00
sg37
I01
sg20
I00
sbsbsS'INFO'
p214
g0
(g28
g2
Ntp215
Rp216
(dp217
g11
I00
sg19
I00
sg102
g0
(g103
g2
Ntp218
Rp219
(dp220
g11
I00
sg19
I00
sg37
I0
sg20
I00
sbsg20
I00
sg38
(lp221
g102
asbsg116
g0
(g33
g2
Ntp222
Rp223
(dp224
g11
I00
sg19
I00
sg37
I01
sg20
I00
sbsg108
g0
(g28
g2
Ntp225
Rp226
(dp227
g11
I00
sg19
I00
sg20
I00
sg102
g0
(g103
g2
Ntp228
Rp229
(dp230
g11
I00
sg19
I00
sg37
I0
sg20
I00
sbsg38
(lp231
g116
ag102
asg116
g0
(g33
g2
Ntp232
Rp233
(dp234
g11
I00
sg19
I00
sg37
I01
sg20
I00
sbsbsg151
g0
(g28
g2
Ntp235
Rp236
(dp237
g11
I00
sg19
I00
sg20
I00
sg186
g0
(g103
g2
Ntp238
Rp239
(dp240
g11
I00
sg19
I00
sg37
I1
sg20
I00
sbsg102
g0
(g103
g2
Ntp241
Rp242
(dp243
g11
I00
sg19
I00
sg37
I10000000
sg20
I00
sbsg38
(lp244
g186
ag116
ag102
asg116
g0
(g33
g2
Ntp245
Rp246
(dp247
g11
I00
sg19
I00
sg37
I01
sg20
I00
sbsbsg38
(lp248
g214
ag179
ag150
ag57
ag131
ag162
ag108
ag151
ag116
asg162
g0
(g164
g2
Ntp249
Rp250
(dp251
g11
I00
sg19
I00
sg37
g214
sg20
I00
sbsbsbsS'_Process__sequences'
p252
(dp253
sS'_Process__services'
p254
(dp255
g6
g9
sS'TFileService'
p256
g0
(g7
g2
Ntp257
Rp258
(dp259
g38
(lp260
S'fileName'
p261
asg11
I00
sg20
I00
sg40
I10
sg69
g70
sg261
g0
(g164
g2
Ntp262
Rp263
(dp264
g11
I00
sg19
I01
sg37
S'JetInfo-TopJets.root'
p265
sg20
I00
sbsg46
g256
sbssS'_Process__source'
p266
g0
(cFWCore.ParameterSet.Modules
Source
p267
g2
Ntp268
Rp269
(dp270
g38
(lp271
S'fileNames'
p272
asg11
I00
sg20
I00
sg40
I175
sg69
g70
sg272
g0
(g13
g14
(lp273
S'root://cmsxrootd.fnal.gov//store/mc/RunIISpring16MiniAODv2/TT_TuneCUETP8M1_13TeV-powheg-pythia8/MINIAODSIM/PUSpring16_80X_mcRun2_asymptotic_2016_miniAODv2_v0_ext3-v2/70000/00287FF4-0E40-E611-8D06-00266CFE78EC.root'
p274
atp275
Rp276
(dp277
g11
I00
sg19
I00
sg20
I00
sg21
I1
sbsg46
S'PoolSource'
p278
sbsS'_Process__aliases'
p279
(dp280
sS'_Process__psets'
p281
(dp282
S'maxEvents'
p283
g0
(g28
g2
Ntp284
Rp285
(dp286
g11
I00
sg19
I00
sg20
I00
sg38
(lp287
S'input'
p288
asS'_Labelable__label'
p289
g283
sg288
g0
(g103
g2
Ntp290
Rp291
(dp292
g11
I00
sg19
I00
sg37
I-1
sg20
I00
sbsbssg256
g258
sS'_Process__essources'
p293
(dp294
sg278
g269
sg283
g285
sS'source'
p295
g269
sS'_Process__vpsets'
p296
(dp297
sS'_Process__name'
p298
S'Demo'
p299
sS'_Process__subProcesses'
p300
(lp301
sS'_cloneToObjectDict'
p302
(dp303
I140448235969552
g285
sI140448235970064
g0
(cFWCore.ParameterSet.Modules
EDAnalyzer
p304
g2
Ntp305
Rp306
(dp307
g38
(lp308
S'jetCollection'
p309
aS'genParticles'
p310
aS'signalType'
p311
aS'isData'
p312
asg11
I00
sg20
I00
sg312
g0
(g33
g2
Ntp313
Rp314
(dp315
g11
I00
sg19
I01
sg37
I00
sg20
I00
sbsg40
I25
sg69
S'/uscms_data/d3/clint/using_git/JetTagging/CMSSW_8_0_14/src/JetInfo/JetConstAnalyzer/python/crab/JetInfo_TTbar_cfg.py'
p316
sg311
g0
(g164
g2
Ntp317
Rp318
(dp319
g11
I00
sg19
I01
sg37
S'Topjets'
p320
sg20
I00
sbsg289
S'JetInfo'
p321
sg309
g0
(cFWCore.ParameterSet.Types
InputTag
p322
g2
Ntp323
Rp324
(dp325
g11
I00
sg19
I01
sg20
I00
sS'_InputTag__moduleLabel'
p326
S'slimmedJetsAK8'
p327
sS'_InputTag__processName'
p328
S''
p329
sS'_InputTag__productInstance'
p330
g329
sbsg310
g0
(g322
g2
Ntp331
Rp332
(dp333
g11
I00
sg19
I01
sg20
I00
sg326
S'prunedGenParticles'
p334
sg328
g329
sg330
g329
sbsg46
S'JetConstAnalyzer'
p335
sbsI140448235970128
g0
(cFWCore.ParameterSet.SequenceTypes
Path
p336
g2
Ntp337
Rp338
(dp339
g11
I00
sS'_seq'
p340
g0
(cFWCore.ParameterSet.SequenceTypes
_SequenceCollection
p341
g2
Ntp342
Rp343
(dp344
S'_collection'
p345
(lp346
g306
asbsg20
I00
sg289
S'p'
p347
sbssS'_Process__esprefers'
p348
(dp349
sS'_Process__schedule'
p350
NsS'_Process__outputmodules'
p351
(dp352
sS'_Process__analyzers'
p353
(dp354
g321
g306
ssS'_Process__InExtendCall'
p355
I00
sg321
g306
sS'_Process__modifiers'
p356
(tsS'_Process__producers'
p357
(dp358
sS'_Process__filters'
p359
(dp360
sS'_Process__looper'
p361
NsS'_Process__endpaths'
p362
g0
(cFWCore.ParameterSet.DictTypes
SortedKeysDict
p363
c__builtin__
dict
p364
(dp365
tp366
Rp367
(dp368
S'list'
p369
(lp370
sbsS'_Process__esproducers'
p371
(dp372
sg347
g338
sS'_Process__paths'
p373
g0
(g363
g364
(dp374
g347
g338
stp375
Rp376
(dp377
g369
(lp378
g347
asbsS'_Process__partialschedules'
p379
(dp380
sS'_Process__isStrict'
p381
I00
sb.